(dp0
S'workloadParams'
p1
(lp2
(lp3
ctaskEnums
TaskDifficulty
p4
(I0
tp5
Rp6
ag4
(I1
tp7
Rp8
ag8
ag4
(I2
tp9
Rp10
ag6
ag6
ag6
ag8
ag6
ag6
ag10
ag8
ag6
ag8
ag10
ag10
ag8
ag10
ag8
ag10
ag6
ag6
ag10
ag10
ag8
ag8
ag6
ag10
ag10
ag8
ag8
ag8
ag8
ag6
ag10
ag8
ag6
ag8
ag6
ag6
ag10
ag8
ag6
ag8
ag8
ag8
ag8
ag6
ag8
ag8
ag10
ag6
ag6
ag10
ag6
ag10
ag6
ag10
ag10
ag6
aa(lp11
g6
ag8
ag10
ag6
ag10
ag8
ag8
ag6
ag10
ag10
ag8
ag8
ag6
ag10
ag8
ag10
ag8
ag8
ag10
ag6
ag6
ag10
ag10
ag10
ag10
ag6
ag6
ag8
ag8
ag10
ag6
ag6
ag8
ag6
ag8
ag10
ag6
ag6
ag10
ag8
ag8
ag10
ag8
ag10
ag6
ag6
ag6
ag6
ag8
ag10
ag10
ag6
ag6
ag6
ag10
ag10
ag10
ag10
ag10
ag8
aa(lp12
g6
ag10
ag10
ag6
ag6
ag6
ag6
ag8
ag8
ag6
ag8
ag8
ag10
ag10
ag8
ag10
ag6
ag10
ag8
ag6
ag10
ag10
ag6
ag6
ag6
ag8
ag8
ag8
ag10
ag8
ag10
ag6
ag6
ag8
ag10
ag10
ag8
ag6
ag6
ag8
ag6
ag8
ag10
ag10
ag8
ag6
ag8
ag10
ag6
ag8
ag8
ag10
ag6
ag10
ag8
ag10
ag10
ag10
ag8
ag8
aa(lp13
g6
ag6
ag8
ag10
ag6
ag6
ag6
ag10
ag6
ag10
ag6
ag10
ag10
ag10
ag6
ag6
ag10
ag10
ag6
ag10
ag10
ag6
ag8
ag6
ag6
ag6
ag6
ag8
ag6
ag8
ag6
ag10
ag8
ag10
ag10
ag8
ag10
ag10
ag10
ag10
ag8
ag8
ag10
ag6
ag8
ag10
ag6
ag8
ag6
ag8
ag10
ag6
ag8
ag6
ag10
ag6
ag10
ag10
ag10
ag10
aa(lp14
g6
ag6
ag10
ag10
ag8
ag10
ag10
ag6
ag6
ag10
ag8
ag6
ag8
ag10
ag10
ag10
ag8
ag10
ag6
ag8
ag8
ag6
ag10
ag10
ag6
ag8
ag6
ag10
ag8
ag8
ag8
ag6
ag10
ag10
ag10
ag8
ag6
ag6
ag10
ag6
ag6
ag10
ag8
ag10
ag10
ag8
ag8
ag6
ag10
ag6
ag8
ag10
ag6
ag6
ag10
ag6
ag10
ag10
ag8
ag6
aa(lp15
g6
ag8
ag8
ag8
ag8
ag6
ag6
ag10
ag10
ag10
ag8
ag8
ag10
ag6
ag6
ag6
ag10
ag10
ag10
ag6
ag8
ag6
ag10
ag6
ag6
ag10
ag10
ag10
ag8
ag6
ag8
ag10
ag10
ag8
ag10
ag6
ag8
ag8
ag10
ag10
ag6
ag6
ag10
ag10
ag6
ag6
ag8
ag8
ag10
ag6
ag10
ag8
ag8
ag6
ag10
ag10
ag8
ag8
ag8
ag10
aa(lp16
g6
ag10
ag8
ag10
ag10
ag8
ag10
ag6
ag6
ag6
ag8
ag6
ag6
ag8
ag6
ag10
ag6
ag8
ag6
ag10
ag8
ag10
ag6
ag8
ag8
ag8
ag10
ag8
ag10
ag6
ag10
ag8
ag10
ag8
ag8
ag6
ag8
ag10
ag10
ag10
ag6
ag6
ag8
ag8
ag8
ag6
ag6
ag6
ag10
ag8
ag6
ag10
ag10
ag6
ag10
ag6
ag10
ag10
ag6
ag10
aa(lp17
g6
ag8
ag8
ag8
ag8
ag6
ag8
ag8
ag8
ag10
ag8
ag8
ag10
ag8
ag10
ag10
ag8
ag8
ag10
ag10
ag10
ag10
ag8
ag10
ag10
ag6
ag10
ag6
ag8
ag6
ag10
ag8
ag8
ag10
ag8
ag8
ag8
ag10
ag8
ag10
ag6
ag10
ag6
ag6
ag6
ag6
ag10
ag8
ag6
ag10
ag10
ag10
ag6
ag10
ag10
ag8
ag6
ag10
ag10
ag8
aa(lp18
g6
ag6
ag6
ag10
ag6
ag10
ag10
ag6
ag8
ag10
ag10
ag8
ag10
ag6
ag6
ag10
ag8
ag10
ag6
ag10
ag10
ag6
ag8
ag6
ag10
ag8
ag6
ag8
ag10
ag10
ag8
ag6
ag6
ag6
ag8
ag8
ag6
ag6
ag10
ag6
ag10
ag6
ag6
ag10
ag10
ag8
ag10
ag10
ag10
ag6
ag10
ag6
ag10
ag8
ag8
ag10
ag6
ag8
ag10
ag8
aa(lp19
g6
ag6
ag6
ag6
ag10
ag6
ag10
ag6
ag6
ag8
ag6
ag10
ag8
ag10
ag10
ag6
ag8
ag6
ag6
ag10
ag10
ag6
ag8
ag6
ag8
ag10
ag6
ag10
ag10
ag10
ag6
ag8
ag6
ag6
ag6
ag8
ag6
ag10
ag6
ag6
ag6
ag10
ag10
ag10
ag10
ag6
ag6
ag10
ag6
ag6
ag8
ag6
ag8
ag8
ag10
ag6
ag8
ag6
ag10
ag10
aa(lp20
g6
ag10
ag10
ag10
ag8
ag6
ag10
ag8
ag6
ag10
ag8
ag6
ag10
ag10
ag6
ag8
ag6
ag6
ag6
ag8
ag8
ag6
ag6
ag10
ag10
ag8
ag10
ag6
ag10
ag6
ag8
ag6
ag8
ag10
ag8
ag8
ag8
ag8
ag8
ag8
ag6
ag8
ag10
ag6
ag8
ag6
ag6
ag8
ag6
ag8
ag6
ag8
ag6
ag10
ag6
ag10
ag8
ag6
ag6
ag10
aa(lp21
g6
ag10
ag8
ag8
ag8
ag6
ag10
ag10
ag10
ag10
ag10
ag8
ag10
ag10
ag10
ag10
ag8
ag6
ag8
ag8
ag6
ag10
ag6
ag8
ag6
ag10
ag6
ag6
ag6
ag6
ag8
ag6
ag6
ag10
ag8
ag10
ag10
ag8
ag10
ag8
ag6
ag10
ag6
ag6
ag6
ag10
ag10
ag10
ag6
ag6
ag10
ag10
ag8
ag10
ag10
ag6
ag10
ag8
ag10
ag10
aa(lp22
g6
ag6
ag10
ag10
ag6
ag10
ag8
ag6
ag10
ag8
ag8
ag6
ag8
ag6
ag8
ag8
ag8
ag8
ag6
ag8
ag6
ag8
ag6
ag10
ag10
ag6
ag8
ag10
ag8
ag10
ag10
ag6
ag6
ag6
ag10
ag10
ag8
ag6
ag8
ag10
ag10
ag10
ag8
ag10
ag6
ag8
ag10
ag6
ag10
ag10
ag6
ag10
ag8
ag6
ag10
ag10
ag8
ag10
ag8
ag8
aa(lp23
g6
ag10
ag6
ag8
ag8
ag6
ag8
ag8
ag8
ag8
ag6
ag6
ag6
ag10
ag10
ag10
ag8
ag6
ag8
ag6
ag8
ag10
ag8
ag10
ag6
ag10
ag6
ag8
ag10
ag6
ag6
ag6
ag6
ag8
ag10
ag10
ag10
ag10
ag8
ag10
ag6
ag10
ag6
ag10
ag6
ag10
ag10
ag8
ag10
ag6
ag8
ag6
ag8
ag6
ag6
ag8
ag6
ag10
ag8
ag10
aa(lp24
g6
ag10
ag6
ag6
ag10
ag10
ag8
ag8
ag6
ag6
ag6
ag6
ag6
ag8
ag10
ag6
ag10
ag8
ag10
ag8
ag6
ag8
ag10
ag6
ag8
ag8
ag6
ag6
ag6
ag6
ag6
ag10
ag10
ag6
ag10
ag8
ag8
ag10
ag6
ag6
ag6
ag10
ag6
ag10
ag10
ag8
ag10
ag6
ag8
ag6
ag8
ag8
ag8
ag6
ag8
ag10
ag10
ag10
ag8
ag8
aa(lp25
g6
ag8
ag6
ag6
ag10
ag8
ag8
ag6
ag10
ag8
ag8
ag8
ag8
ag10
ag8
ag8
ag10
ag8
ag6
ag6
ag8
ag10
ag8
ag6
ag10
ag8
ag6
ag8
ag6
ag6
ag8
ag6
ag10
ag8
ag8
ag8
ag6
ag10
ag8
ag10
ag8
ag6
ag8
ag8
ag8
ag10
ag8
ag10
ag6
ag8
ag8
ag6
ag6
ag8
ag10
ag6
ag6
ag6
ag6
ag8
aa(lp26
g6
ag10
ag8
ag8
ag10
ag10
ag6
ag10
ag10
ag6
ag10
ag8
ag10
ag8
ag8
ag8
ag10
ag6
ag8
ag10
ag6
ag10
ag8
ag10
ag6
ag8
ag6
ag6
ag6
ag6
ag10
ag6
ag6
ag6
ag8
ag8
ag6
ag8
ag10
ag10
ag10
ag6
ag8
ag10
ag10
ag8
ag6
ag8
ag8
ag10
ag10
ag8
ag6
ag6
ag6
ag8
ag8
ag8
ag10
ag10
aa(lp27
g6
ag6
ag10
ag10
ag6
ag8
ag6
ag8
ag8
ag8
ag6
ag8
ag6
ag6
ag10
ag10
ag6
ag8
ag6
ag10
ag8
ag10
ag10
ag8
ag8
ag10
ag10
ag6
ag8
ag8
ag8
ag6
ag10
ag8
ag8
ag8
ag10
ag6
ag6
ag10
ag10
ag8
ag8
ag8
ag6
ag8
ag6
ag10
ag10
ag10
ag8
ag10
ag10
ag6
ag6
ag8
ag6
ag6
ag6
ag8
aa(lp28
g6
ag6
ag8
ag6
ag8
ag6
ag8
ag6
ag6
ag8
ag6
ag10
ag6
ag10
ag8
ag10
ag8
ag8
ag6
ag6
ag8
ag6
ag8
ag6
ag8
ag10
ag10
ag10
ag10
ag8
ag8
ag10
ag10
ag6
ag10
ag8
ag10
ag10
ag10
ag8
ag6
ag8
ag8
ag10
ag10
ag8
ag10
ag10
ag10
ag10
ag8
ag6
ag10
ag10
ag10
ag8
ag8
ag8
ag8
ag6
aa(lp29
g6
ag6
ag8
ag10
ag6
ag10
ag8
ag8
ag10
ag6
ag10
ag8
ag10
ag6
ag8
ag10
ag8
ag8
ag10
ag8
ag8
ag10
ag6
ag8
ag8
ag8
ag10
ag8
ag8
ag10
ag10
ag8
ag10
ag6
ag6
ag6
ag6
ag6
ag6
ag10
ag6
ag10
ag8
ag8
ag10
ag10
ag8
ag8
ag10
ag8
ag8
ag8
ag10
ag6
ag6
ag8
ag6
ag8
ag8
ag6
aa(lp30
g6
ag6
ag10
ag6
ag10
ag6
ag8
ag6
ag8
ag8
ag6
ag8
ag8
ag8
ag6
ag8
ag8
ag8
ag6
ag6
ag10
ag10
ag10
ag6
ag8
ag6
ag6
ag10
ag10
ag6
ag10
ag6
ag10
ag8
ag6
ag6
ag10
ag8
ag10
ag10
ag10
ag10
ag6
ag8
ag6
ag8
ag6
ag10
ag6
ag10
ag10
ag10
ag10
ag6
ag6
ag6
ag8
ag10
ag6
ag10
aa(lp31
g6
ag10
ag8
ag10
ag6
ag10
ag10
ag6
ag10
ag8
ag6
ag8
ag6
ag6
ag8
ag6
ag8
ag8
ag6
ag10
ag6
ag6
ag6
ag10
ag10
ag6
ag10
ag6
ag10
ag10
ag8
ag10
ag10
ag8
ag6
ag10
ag8
ag8
ag6
ag8
ag6
ag8
ag6
ag8
ag8
ag10
ag8
ag10
ag10
ag8
ag6
ag10
ag10
ag10
ag8
ag6
ag6
ag8
ag10
ag8
aa(lp32
g6
ag6
ag6
ag10
ag8
ag8
ag6
ag6
ag10
ag8
ag10
ag6
ag10
ag6
ag10
ag6
ag6
ag6
ag8
ag10
ag10
ag10
ag8
ag8
ag6
ag6
ag10
ag8
ag10
ag10
ag6
ag8
ag8
ag8
ag10
ag6
ag10
ag8
ag6
ag6
ag8
ag6
ag10
ag8
ag8
ag8
ag8
ag6
ag10
ag8
ag6
ag6
ag10
ag10
ag10
ag10
ag8
ag10
ag8
ag8
aa(lp33
g6
ag6
ag10
ag6
ag8
ag6
ag6
ag10
ag10
ag6
ag10
ag10
ag8
ag8
ag10
ag8
ag10
ag8
ag6
ag6
ag10
ag6
ag6
ag10
ag8
ag10
ag10
ag10
ag6
ag8
ag6
ag8
ag10
ag10
ag10
ag6
ag6
ag10
ag8
ag10
ag6
ag6
ag10
ag8
ag10
ag10
ag10
ag10
ag10
ag10
ag6
ag10
ag6
ag6
ag8
ag8
ag8
ag10
ag10
ag8
aa(lp34
g6
ag10
ag6
ag6
ag10
ag10
ag6
ag10
ag6
ag8
ag8
ag10
ag6
ag8
ag8
ag8
ag8
ag10
ag8
ag10
ag6
ag8
ag8
ag8
ag8
ag8
ag8
ag6
ag6
ag10
ag10
ag10
ag10
ag8
ag8
ag8
ag6
ag10
ag10
ag8
ag10
ag10
ag8
ag10
ag10
ag10
ag10
ag8
ag10
ag6
ag10
ag6
ag6
ag6
ag6
ag6
ag6
ag8
ag6
ag6
aa(lp35
g6
ag10
ag6
ag8
ag10
ag10
ag6
ag8
ag10
ag6
ag8
ag8
ag6
ag8
ag6
ag8
ag6
ag8
ag10
ag6
ag8
ag6
ag10
ag6
ag10
ag8
ag6
ag10
ag8
ag6
ag10
ag10
ag8
ag8
ag6
ag8
ag10
ag10
ag8
ag6
ag6
ag8
ag8
ag6
ag6
ag10
ag6
ag8
ag10
ag6
ag10
ag6
ag6
ag8
ag6
ag8
ag8
ag6
ag6
ag6
aa(lp36
g6
ag10
ag6
ag10
ag6
ag6
ag6
ag10
ag10
ag6
ag10
ag8
ag6
ag8
ag8
ag8
ag8
ag10
ag8
ag8
ag6
ag10
ag8
ag8
ag10
ag8
ag6
ag10
ag10
ag10
ag8
ag6
ag6
ag6
ag8
ag8
ag10
ag6
ag10
ag10
ag8
ag8
ag8
ag10
ag6
ag10
ag10
ag8
ag10
ag8
ag8
ag6
ag6
ag8
ag6
ag8
ag6
ag6
ag8
ag8
aa(lp37
g6
ag6
ag8
ag10
ag10
ag8
ag10
ag8
ag6
ag8
ag6
ag8
ag6
ag10
ag6
ag8
ag8
ag10
ag8
ag6
ag6
ag6
ag10
ag8
ag10
ag10
ag6
ag10
ag8
ag6
ag8
ag6
ag8
ag8
ag6
ag8
ag10
ag8
ag8
ag8
ag8
ag10
ag10
ag10
ag6
ag6
ag6
ag10
ag6
ag6
ag8
ag10
ag8
ag10
ag8
ag8
ag10
ag6
ag6
ag8
aa(lp38
g6
ag8
ag6
ag10
ag8
ag10
ag10
ag6
ag10
ag6
ag8
ag6
ag6
ag8
ag10
ag10
ag6
ag8
ag6
ag10
ag10
ag6
ag6
ag6
ag6
ag6
ag10
ag6
ag6
ag8
ag10
ag8
ag10
ag6
ag10
ag10
ag8
ag10
ag8
ag6
ag6
ag6
ag8
ag10
ag10
ag6
ag8
ag10
ag8
ag6
ag8
ag6
ag10
ag10
ag10
ag10
ag6
ag10
ag10
ag6
aa(lp39
g6
ag6
ag8
ag10
ag6
ag6
ag10
ag8
ag10
ag10
ag8
ag6
ag6
ag10
ag8
ag10
ag6
ag10
ag6
ag8
ag8
ag6
ag8
ag8
ag8
ag10
ag8
ag8
ag8
ag6
ag6
ag8
ag8
ag10
ag6
ag10
ag6
ag6
ag8
ag10
ag6
ag6
ag8
ag6
ag8
ag8
ag8
ag6
ag6
ag6
ag6
ag8
ag8
ag6
ag8
ag10
ag6
ag6
ag10
ag8
aa(lp40
g6
ag6
ag8
ag10
ag6
ag10
ag6
ag6
ag10
ag10
ag8
ag10
ag6
ag10
ag10
ag6
ag8
ag6
ag8
ag6
ag6
ag10
ag6
ag8
ag8
ag8
ag8
ag6
ag6
ag8
ag10
ag8
ag10
ag10
ag6
ag8
ag10
ag6
ag8
ag10
ag6
ag8
ag6
ag6
ag8
ag8
ag6
ag8
ag8
ag10
ag8
ag10
ag10
ag6
ag10
ag6
ag8
ag6
ag6
ag10
aa(lp41
g6
ag6
ag10
ag6
ag10
ag10
ag8
ag10
ag10
ag6
ag8
ag8
ag8
ag6
ag8
ag10
ag10
ag10
ag10
ag8
ag10
ag6
ag6
ag10
ag10
ag6
ag6
ag8
ag6
ag10
ag6
ag6
ag6
ag8
ag10
ag6
ag10
ag8
ag6
ag10
ag8
ag10
ag6
ag8
ag10
ag10
ag8
ag8
ag6
ag10
ag10
ag10
ag10
ag6
ag8
ag10
ag10
ag8
ag6
ag8
aa(lp42
g6
ag6
ag8
ag6
ag10
ag6
ag8
ag8
ag10
ag8
ag8
ag6
ag10
ag8
ag8
ag8
ag6
ag6
ag8
ag6
ag6
ag6
ag10
ag8
ag8
ag8
ag6
ag8
ag10
ag10
ag6
ag6
ag6
ag10
ag6
ag10
ag10
ag8
ag10
ag8
ag8
ag8
ag10
ag6
ag8
ag6
ag10
ag6
ag10
ag8
ag10
ag6
ag6
ag6
ag8
ag6
ag10
ag8
ag8
ag6
aa(lp43
g6
ag8
ag8
ag10
ag10
ag10
ag8
ag8
ag10
ag6
ag10
ag6
ag8
ag10
ag6
ag6
ag8
ag8
ag10
ag8
ag8
ag6
ag8
ag10
ag6
ag8
ag6
ag8
ag8
ag6
ag8
ag10
ag6
ag8
ag8
ag10
ag10
ag6
ag10
ag10
ag6
ag10
ag6
ag10
ag6
ag10
ag6
ag6
ag8
ag10
ag8
ag8
ag6
ag10
ag8
ag6
ag10
ag10
ag10
ag8
aa(lp44
g6
ag8
ag8
ag10
ag8
ag6
ag8
ag8
ag10
ag8
ag6
ag8
ag8
ag8
ag6
ag6
ag6
ag10
ag8
ag10
ag8
ag6
ag8
ag10
ag6
ag6
ag6
ag6
ag8
ag6
ag8
ag10
ag8
ag8
ag10
ag6
ag6
ag10
ag6
ag10
ag8
ag6
ag6
ag6
ag8
ag8
ag8
ag10
ag6
ag10
ag10
ag8
ag8
ag6
ag10
ag6
ag6
ag8
ag8
ag10
aa(lp45
g6
ag6
ag6
ag6
ag10
ag6
ag8
ag10
ag10
ag6
ag10
ag6
ag10
ag10
ag8
ag6
ag10
ag8
ag10
ag8
ag6
ag8
ag10
ag10
ag8
ag8
ag10
ag6
ag8
ag6
ag10
ag10
ag10
ag10
ag6
ag8
ag10
ag6
ag10
ag10
ag6
ag8
ag10
ag10
ag6
ag10
ag10
ag6
ag6
ag10
ag8
ag10
ag10
ag8
ag10
ag8
ag6
ag8
ag6
ag8
aa(lp46
g6
ag6
ag10
ag8
ag6
ag8
ag10
ag10
ag8
ag6
ag10
ag10
ag10
ag10
ag8
ag10
ag10
ag8
ag8
ag6
ag6
ag8
ag6
ag10
ag6
ag6
ag6
ag8
ag6
ag6
ag6
ag8
ag8
ag8
ag8
ag10
ag8
ag10
ag6
ag6
ag8
ag6
ag6
ag10
ag8
ag8
ag6
ag10
ag6
ag10
ag6
ag6
ag8
ag6
ag10
ag6
ag8
ag10
ag8
ag8
aa(lp47
g6
ag8
ag6
ag6
ag8
ag8
ag8
ag8
ag10
ag10
ag8
ag6
ag10
ag8
ag10
ag6
ag10
ag8
ag8
ag6
ag6
ag6
ag8
ag8
ag6
ag10
ag10
ag10
ag6
ag10
ag6
ag10
ag10
ag8
ag8
ag8
ag6
ag6
ag6
ag8
ag10
ag8
ag10
ag6
ag8
ag8
ag10
ag10
ag10
ag8
ag6
ag8
ag8
ag6
ag10
ag8
ag6
ag10
ag10
ag8
aa(lp48
g6
ag10
ag10
ag6
ag8
ag6
ag8
ag6
ag6
ag6
ag6
ag10
ag6
ag8
ag10
ag6
ag10
ag10
ag6
ag6
ag6
ag8
ag6
ag10
ag8
ag10
ag10
ag6
ag8
ag6
ag6
ag10
ag8
ag8
ag8
ag10
ag6
ag10
ag8
ag8
ag10
ag10
ag8
ag6
ag10
ag6
ag6
ag8
ag10
ag10
ag8
ag6
ag8
ag8
ag8
ag10
ag6
ag6
ag6
ag6
aa(lp49
g6
ag10
ag6
ag8
ag8
ag6
ag6
ag10
ag8
ag10
ag8
ag8
ag10
ag6
ag10
ag10
ag6
ag6
ag6
ag8
ag6
ag8
ag8
ag6
ag10
ag6
ag8
ag6
ag10
ag8
ag6
ag10
ag8
ag10
ag10
ag8
ag6
ag6
ag8
ag10
ag10
ag6
ag8
ag8
ag10
ag6
ag8
ag8
ag10
ag10
ag6
ag6
ag10
ag10
ag8
ag6
ag6
ag10
ag8
ag6
aa(lp50
g6
ag8
ag6
ag8
ag8
ag8
ag10
ag8
ag6
ag10
ag10
ag8
ag6
ag8
ag8
ag10
ag6
ag8
ag8
ag8
ag8
ag6
ag10
ag8
ag6
ag6
ag6
ag8
ag6
ag8
ag6
ag10
ag10
ag10
ag10
ag6
ag10
ag6
ag6
ag8
ag10
ag8
ag10
ag10
ag8
ag8
ag8
ag10
ag6
ag10
ag10
ag10
ag10
ag10
ag10
ag8
ag8
ag6
ag10
ag10
aa(lp51
g6
ag8
ag8
ag8
ag10
ag6
ag6
ag10
ag10
ag6
ag8
ag6
ag8
ag6
ag6
ag10
ag6
ag6
ag8
ag8
ag8
ag8
ag6
ag6
ag10
ag6
ag6
ag6
ag10
ag6
ag8
ag10
ag8
ag10
ag10
ag8
ag6
ag6
ag10
ag10
ag8
ag10
ag6
ag10
ag8
ag6
ag8
ag10
ag10
ag6
ag6
ag10
ag8
ag8
ag10
ag8
ag8
ag10
ag10
ag8
aa(lp52
g6
ag6
ag8
ag10
ag6
ag6
ag6
ag6
ag10
ag10
ag10
ag6
ag6
ag8
ag10
ag8
ag10
ag8
ag10
ag6
ag6
ag8
ag8
ag10
ag8
ag10
ag10
ag8
ag6
ag6
ag8
ag10
ag6
ag8
ag8
ag6
ag8
ag8
ag10
ag6
ag8
ag6
ag8
ag8
ag8
ag6
ag8
ag10
ag10
ag10
ag6
ag8
ag10
ag8
ag6
ag8
ag10
ag10
ag10
ag6
aa(lp53
g6
ag10
ag8
ag10
ag8
ag8
ag10
ag10
ag8
ag8
ag10
ag6
ag8
ag8
ag10
ag10
ag8
ag6
ag8
ag6
ag10
ag10
ag8
ag6
ag8
ag8
ag10
ag8
ag10
ag8
ag8
ag8
ag8
ag6
ag10
ag8
ag8
ag6
ag8
ag10
ag10
ag8
ag6
ag6
ag10
ag10
ag6
ag8
ag8
ag10
ag8
ag8
ag10
ag10
ag6
ag6
ag8
ag6
ag6
ag8
aa(lp54
g6
ag6
ag6
ag10
ag10
ag6
ag6
ag10
ag8
ag10
ag8
ag10
ag10
ag6
ag8
ag6
ag10
ag6
ag6
ag8
ag8
ag8
ag10
ag8
ag8
ag6
ag10
ag10
ag6
ag10
ag6
ag6
ag10
ag10
ag8
ag6
ag6
ag6
ag10
ag6
ag6
ag10
ag8
ag8
ag10
ag10
ag8
ag6
ag6
ag6
ag8
ag8
ag10
ag8
ag8
ag10
ag8
ag6
ag8
ag6
aa(lp55
g6
ag10
ag6
ag6
ag6
ag8
ag6
ag8
ag8
ag6
ag8
ag8
ag6
ag8
ag8
ag6
ag8
ag6
ag8
ag10
ag8
ag10
ag6
ag8
ag10
ag8
ag10
ag6
ag8
ag6
ag8
ag10
ag8
ag8
ag8
ag6
ag8
ag10
ag10
ag6
ag6
ag8
ag6
ag6
ag10
ag10
ag10
ag10
ag10
ag10
ag10
ag10
ag6
ag8
ag8
ag8
ag8
ag8
ag6
ag6
aa(lp56
g6
ag10
ag6
ag8
ag6
ag8
ag8
ag10
ag8
ag10
ag10
ag8
ag6
ag6
ag10
ag8
ag6
ag8
ag8
ag6
ag6
ag10
ag10
ag8
ag10
ag8
ag8
ag8
ag6
ag6
ag10
ag10
ag8
ag6
ag6
ag10
ag6
ag8
ag10
ag8
ag8
ag6
ag6
ag6
ag6
ag8
ag8
ag10
ag10
ag10
ag8
ag10
ag10
ag6
ag10
ag10
ag8
ag6
ag6
ag8
aa(lp57
g6
ag10
ag10
ag8
ag6
ag6
ag8
ag6
ag8
ag6
ag10
ag10
ag10
ag6
ag10
ag6
ag10
ag8
ag10
ag6
ag6
ag8
ag6
ag8
ag6
ag8
ag6
ag10
ag10
ag8
ag10
ag6
ag6
ag6
ag6
ag8
ag8
ag10
ag8
ag10
ag10
ag6
ag10
ag6
ag8
ag8
ag10
ag6
ag8
ag6
ag6
ag6
ag8
ag6
ag10
ag8
ag6
ag8
ag10
ag6
aa(lp58
g6
ag10
ag6
ag6
ag8
ag8
ag6
ag6
ag8
ag6
ag8
ag10
ag6
ag10
ag6
ag6
ag6
ag8
ag10
ag10
ag8
ag8
ag10
ag8
ag10
ag10
ag8
ag8
ag10
ag8
ag8
ag10
ag6
ag8
ag8
ag6
ag8
ag8
ag10
ag10
ag10
ag10
ag10
ag8
ag8
ag8
ag6
ag8
ag8
ag6
ag8
ag6
ag6
ag8
ag8
ag8
ag10
ag8
ag10
ag8
aa(lp59
g6
ag8
ag8
ag8
ag10
ag6
ag10
ag8
ag10
ag6
ag8
ag8
ag10
ag8
ag8
ag6
ag8
ag8
ag10
ag8
ag8
ag8
ag10
ag8
ag8
ag6
ag8
ag8
ag6
ag10
ag8
ag6
ag10
ag10
ag6
ag6
ag6
ag10
ag6
ag6
ag10
ag8
ag8
ag6
ag6
ag8
ag6
ag10
ag10
ag10
ag10
ag8
ag10
ag8
ag8
ag6
ag6
ag6
ag10
ag6
aasS'attentionParams'
p60
(lp61
(lp62
g6
ag10
ag10
ag8
ag6
ag8
ag8
ag6
ag8
ag6
ag8
ag8
ag8
ag6
ag6
ag10
ag10
ag8
ag8
ag10
ag6
ag6
ag8
ag6
ag6
ag6
ag10
ag10
ag6
ag8
ag6
ag8
ag6
ag8
ag6
ag6
ag10
ag10
ag10
ag6
ag10
ag6
ag10
ag10
ag8
ag6
ag6
ag8
ag10
ag10
ag10
ag6
ag10
ag6
ag6
ag6
ag10
ag8
ag10
ag6
aa(lp63
g6
ag6
ag8
ag6
ag8
ag6
ag8
ag8
ag6
ag6
ag10
ag6
ag10
ag8
ag8
ag8
ag8
ag8
ag8
ag10
ag10
ag8
ag10
ag6
ag8
ag8
ag10
ag10
ag8
ag8
ag6
ag10
ag8
ag10
ag10
ag6
ag10
ag10
ag10
ag8
ag8
ag8
ag6
ag8
ag10
ag6
ag6
ag6
ag10
ag6
ag8
ag10
ag6
ag8
ag10
ag8
ag6
ag8
ag10
ag6
aa(lp64
g6
ag10
ag6
ag10
ag6
ag8
ag8
ag8
ag6
ag10
ag10
ag6
ag6
ag8
ag8
ag6
ag6
ag8
ag10
ag10
ag8
ag6
ag10
ag8
ag8
ag8
ag10
ag8
ag6
ag10
ag10
ag6
ag6
ag6
ag8
ag6
ag8
ag10
ag10
ag8
ag8
ag8
ag6
ag8
ag10
ag6
ag8
ag10
ag10
ag10
ag10
ag10
ag6
ag8
ag6
ag10
ag8
ag10
ag10
ag6
aa(lp65
g6
ag6
ag6
ag10
ag10
ag8
ag8
ag8
ag6
ag6
ag8
ag10
ag6
ag10
ag6
ag6
ag6
ag10
ag6
ag6
ag6
ag8
ag6
ag8
ag8
ag8
ag10
ag8
ag8
ag8
ag8
ag8
ag8
ag6
ag8
ag10
ag6
ag8
ag8
ag8
ag10
ag10
ag8
ag6
ag10
ag6
ag6
ag6
ag10
ag8
ag10
ag10
ag10
ag6
ag10
ag6
ag10
ag6
ag10
ag10
aa(lp66
g6
ag6
ag6
ag10
ag8
ag8
ag6
ag8
ag6
ag10
ag6
ag6
ag8
ag10
ag8
ag6
ag10
ag6
ag6
ag6
ag10
ag8
ag8
ag10
ag6
ag10
ag10
ag8
ag8
ag10
ag8
ag8
ag6
ag8
ag6
ag10
ag10
ag8
ag8
ag10
ag8
ag6
ag6
ag8
ag6
ag10
ag10
ag6
ag6
ag10
ag8
ag10
ag8
ag10
ag10
ag10
ag6
ag10
ag6
ag6
aa(lp67
g6
ag10
ag10
ag8
ag6
ag6
ag10
ag10
ag8
ag6
ag8
ag6
ag8
ag8
ag8
ag8
ag6
ag10
ag6
ag6
ag6
ag6
ag10
ag10
ag10
ag6
ag10
ag6
ag8
ag8
ag10
ag10
ag8
ag6
ag8
ag10
ag8
ag6
ag8
ag6
ag8
ag6
ag6
ag8
ag8
ag6
ag6
ag8
ag8
ag10
ag6
ag10
ag6
ag10
ag8
ag6
ag6
ag8
ag10
ag10
aa(lp68
g6
ag8
ag8
ag8
ag8
ag10
ag6
ag10
ag10
ag8
ag8
ag10
ag6
ag8
ag10
ag10
ag10
ag10
ag8
ag6
ag8
ag8
ag6
ag10
ag8
ag10
ag6
ag6
ag8
ag6
ag10
ag6
ag10
ag6
ag10
ag6
ag8
ag10
ag10
ag6
ag8
ag6
ag6
ag10
ag8
ag6
ag6
ag8
ag10
ag6
ag10
ag10
ag8
ag6
ag10
ag10
ag6
ag8
ag10
ag8
aa(lp69
g6
ag10
ag6
ag6
ag6
ag10
ag8
ag8
ag8
ag8
ag6
ag10
ag8
ag8
ag6
ag6
ag10
ag10
ag6
ag6
ag8
ag10
ag8
ag6
ag10
ag10
ag6
ag6
ag6
ag6
ag6
ag6
ag10
ag8
ag8
ag8
ag10
ag6
ag10
ag6
ag6
ag10
ag8
ag8
ag8
ag10
ag10
ag6
ag8
ag8
ag6
ag8
ag10
ag10
ag8
ag6
ag10
ag6
ag8
ag6
aa(lp70
g6
ag8
ag6
ag10
ag8
ag10
ag10
ag8
ag6
ag10
ag8
ag6
ag6
ag10
ag10
ag6
ag6
ag6
ag8
ag6
ag6
ag6
ag6
ag8
ag6
ag8
ag10
ag6
ag10
ag8
ag6
ag6
ag8
ag10
ag10
ag8
ag6
ag10
ag6
ag10
ag10
ag6
ag8
ag6
ag6
ag8
ag10
ag6
ag8
ag6
ag6
ag8
ag10
ag10
ag10
ag6
ag10
ag10
ag10
ag10
aa(lp71
g6
ag10
ag6
ag6
ag8
ag10
ag8
ag6
ag6
ag8
ag10
ag8
ag6
ag8
ag8
ag8
ag6
ag6
ag10
ag10
ag8
ag8
ag6
ag8
ag8
ag8
ag8
ag10
ag8
ag6
ag8
ag10
ag10
ag10
ag6
ag6
ag10
ag8
ag10
ag8
ag8
ag10
ag8
ag8
ag10
ag8
ag8
ag8
ag6
ag6
ag10
ag6
ag10
ag6
ag6
ag6
ag6
ag10
ag8
ag6
aa(lp72
g6
ag8
ag8
ag8
ag6
ag6
ag10
ag6
ag6
ag8
ag6
ag10
ag6
ag6
ag6
ag6
ag6
ag8
ag8
ag10
ag10
ag6
ag6
ag6
ag10
ag8
ag10
ag10
ag6
ag6
ag10
ag6
ag10
ag6
ag10
ag10
ag6
ag10
ag10
ag10
ag10
ag8
ag8
ag10
ag8
ag6
ag10
ag10
ag6
ag6
ag8
ag6
ag6
ag8
ag8
ag10
ag10
ag6
ag8
ag10
aa(lp73
g6
ag8
ag10
ag10
ag8
ag8
ag6
ag6
ag6
ag10
ag10
ag10
ag10
ag6
ag8
ag6
ag6
ag10
ag8
ag10
ag10
ag8
ag6
ag10
ag10
ag6
ag10
ag6
ag10
ag8
ag8
ag10
ag8
ag10
ag10
ag6
ag10
ag6
ag6
ag6
ag10
ag6
ag6
ag10
ag10
ag6
ag10
ag6
ag10
ag8
ag8
ag8
ag8
ag6
ag10
ag8
ag6
ag8
ag10
ag8
aa(lp74
g6
ag8
ag8
ag8
ag6
ag8
ag10
ag8
ag6
ag8
ag10
ag6
ag6
ag10
ag6
ag6
ag10
ag6
ag10
ag8
ag10
ag6
ag10
ag6
ag6
ag6
ag6
ag10
ag10
ag8
ag6
ag6
ag8
ag10
ag10
ag6
ag10
ag6
ag6
ag6
ag8
ag8
ag8
ag6
ag8
ag6
ag10
ag10
ag10
ag8
ag10
ag6
ag6
ag6
ag6
ag8
ag8
ag6
ag8
ag10
aa(lp75
g6
ag6
ag10
ag6
ag10
ag10
ag6
ag6
ag10
ag6
ag6
ag10
ag6
ag8
ag8
ag10
ag8
ag6
ag6
ag10
ag8
ag8
ag8
ag8
ag6
ag6
ag10
ag10
ag6
ag6
ag10
ag8
ag10
ag10
ag8
ag8
ag10
ag6
ag6
ag10
ag6
ag8
ag8
ag8
ag10
ag6
ag10
ag8
ag10
ag10
ag8
ag6
ag8
ag6
ag8
ag6
ag6
ag6
ag6
ag8
aa(lp76
g6
ag10
ag10
ag8
ag8
ag10
ag8
ag10
ag10
ag10
ag10
ag6
ag6
ag8
ag10
ag6
ag10
ag10
ag8
ag6
ag10
ag6
ag8
ag6
ag8
ag10
ag8
ag8
ag10
ag6
ag8
ag6
ag8
ag8
ag6
ag6
ag6
ag8
ag8
ag10
ag8
ag10
ag6
ag6
ag8
ag10
ag8
ag10
ag10
ag8
ag8
ag6
ag10
ag6
ag6
ag8
ag8
ag6
ag8
ag6
aa(lp77
g6
ag10
ag10
ag10
ag10
ag6
ag6
ag8
ag8
ag6
ag10
ag8
ag6
ag6
ag10
ag10
ag8
ag10
ag8
ag6
ag10
ag6
ag8
ag10
ag8
ag10
ag10
ag6
ag10
ag6
ag10
ag10
ag10
ag6
ag8
ag8
ag6
ag6
ag6
ag8
ag8
ag10
ag6
ag8
ag6
ag10
ag10
ag8
ag10
ag8
ag10
ag10
ag6
ag10
ag10
ag8
ag8
ag10
ag8
ag8
aa(lp78
g6
ag10
ag8
ag10
ag10
ag6
ag8
ag8
ag6
ag8
ag8
ag6
ag10
ag10
ag8
ag8
ag10
ag6
ag6
ag6
ag10
ag10
ag8
ag6
ag8
ag6
ag10
ag8
ag10
ag8
ag8
ag6
ag6
ag8
ag8
ag10
ag10
ag8
ag10
ag8
ag6
ag8
ag8
ag10
ag8
ag8
ag8
ag8
ag8
ag8
ag6
ag10
ag10
ag6
ag8
ag8
ag6
ag10
ag8
ag6
aa(lp79
g6
ag8
ag8
ag10
ag8
ag10
ag8
ag6
ag10
ag10
ag8
ag10
ag8
ag10
ag6
ag6
ag8
ag6
ag8
ag10
ag10
ag10
ag10
ag8
ag8
ag10
ag10
ag6
ag6
ag6
ag6
ag8
ag10
ag10
ag10
ag10
ag8
ag8
ag6
ag8
ag6
ag6
ag8
ag8
ag8
ag8
ag10
ag10
ag6
ag6
ag8
ag8
ag8
ag6
ag8
ag10
ag10
ag6
ag8
ag8
aa(lp80
g6
ag8
ag8
ag10
ag8
ag6
ag8
ag8
ag8
ag10
ag6
ag6
ag8
ag10
ag10
ag6
ag10
ag8
ag6
ag8
ag10
ag6
ag8
ag10
ag8
ag6
ag10
ag6
ag6
ag10
ag6
ag8
ag8
ag8
ag8
ag10
ag6
ag6
ag6
ag8
ag6
ag6
ag6
ag8
ag10
ag6
ag10
ag6
ag6
ag8
ag8
ag10
ag6
ag6
ag10
ag6
ag6
ag6
ag10
ag6
aa(lp81
g6
ag10
ag10
ag8
ag8
ag6
ag6
ag10
ag6
ag10
ag10
ag8
ag10
ag10
ag10
ag8
ag10
ag10
ag8
ag10
ag10
ag8
ag6
ag10
ag10
ag10
ag8
ag10
ag10
ag6
ag6
ag8
ag6
ag10
ag10
ag8
ag8
ag10
ag10
ag10
ag8
ag6
ag10
ag8
ag6
ag10
ag8
ag8
ag8
ag10
ag10
ag10
ag8
ag8
ag10
ag10
ag6
ag8
ag10
ag6
aa(lp82
g6
ag10
ag8
ag6
ag10
ag8
ag6
ag6
ag8
ag10
ag6
ag8
ag10
ag6
ag10
ag10
ag10
ag8
ag6
ag8
ag8
ag8
ag8
ag6
ag10
ag6
ag8
ag6
ag10
ag10
ag10
ag8
ag10
ag6
ag10
ag6
ag8
ag6
ag10
ag10
ag8
ag8
ag6
ag6
ag10
ag10
ag10
ag10
ag8
ag10
ag6
ag6
ag10
ag8
ag6
ag6
ag6
ag6
ag6
ag10
aa(lp83
g6
ag10
ag8
ag8
ag6
ag10
ag6
ag6
ag10
ag10
ag8
ag8
ag8
ag6
ag10
ag8
ag10
ag6
ag6
ag10
ag10
ag10
ag10
ag6
ag6
ag10
ag8
ag8
ag6
ag10
ag8
ag8
ag8
ag10
ag6
ag8
ag8
ag8
ag8
ag6
ag10
ag8
ag10
ag6
ag8
ag10
ag6
ag8
ag10
ag8
ag8
ag8
ag10
ag6
ag10
ag6
ag10
ag6
ag10
ag6
aa(lp84
g6
ag10
ag10
ag10
ag10
ag10
ag10
ag8
ag6
ag6
ag6
ag6
ag8
ag10
ag8
ag10
ag6
ag6
ag8
ag8
ag10
ag6
ag10
ag6
ag6
ag10
ag8
ag10
ag10
ag10
ag8
ag8
ag8
ag10
ag10
ag6
ag6
ag8
ag6
ag6
ag6
ag6
ag8
ag6
ag8
ag10
ag8
ag10
ag10
ag8
ag8
ag6
ag6
ag6
ag6
ag6
ag6
ag6
ag6
ag8
aa(lp85
g6
ag6
ag10
ag10
ag10
ag6
ag10
ag10
ag6
ag10
ag8
ag8
ag8
ag6
ag6
ag8
ag6
ag6
ag6
ag10
ag10
ag8
ag8
ag6
ag8
ag10
ag8
ag8
ag8
ag10
ag6
ag8
ag10
ag6
ag8
ag10
ag10
ag10
ag8
ag10
ag6
ag10
ag8
ag10
ag8
ag8
ag6
ag8
ag10
ag6
ag8
ag6
ag6
ag6
ag10
ag6
ag8
ag10
ag8
ag8
aa(lp86
g6
ag10
ag6
ag10
ag8
ag10
ag6
ag8
ag6
ag8
ag10
ag10
ag8
ag10
ag6
ag8
ag6
ag10
ag8
ag8
ag10
ag10
ag10
ag6
ag10
ag8
ag8
ag8
ag10
ag8
ag8
ag8
ag10
ag6
ag8
ag8
ag6
ag8
ag6
ag6
ag10
ag10
ag8
ag8
ag10
ag6
ag10
ag10
ag8
ag8
ag10
ag10
ag10
ag6
ag6
ag10
ag6
ag10
ag10
ag10
aa(lp87
g6
ag8
ag10
ag6
ag8
ag6
ag6
ag6
ag8
ag8
ag10
ag6
ag6
ag6
ag8
ag10
ag8
ag8
ag8
ag6
ag6
ag8
ag6
ag6
ag8
ag6
ag6
ag10
ag10
ag10
ag10
ag8
ag8
ag6
ag10
ag6
ag8
ag6
ag6
ag10
ag10
ag8
ag6
ag6
ag6
ag8
ag6
ag6
ag6
ag8
ag6
ag10
ag8
ag10
ag10
ag8
ag8
ag10
ag8
ag6
aa(lp88
g6
ag6
ag8
ag8
ag10
ag8
ag10
ag6
ag6
ag8
ag8
ag10
ag8
ag6
ag8
ag10
ag10
ag10
ag6
ag8
ag8
ag10
ag10
ag6
ag8
ag8
ag8
ag8
ag6
ag6
ag10
ag6
ag8
ag6
ag10
ag6
ag6
ag6
ag10
ag8
ag6
ag6
ag8
ag10
ag6
ag6
ag8
ag6
ag8
ag8
ag8
ag8
ag6
ag6
ag8
ag8
ag8
ag6
ag8
ag10
aa(lp89
g6
ag8
ag8
ag10
ag8
ag6
ag10
ag8
ag6
ag6
ag8
ag6
ag6
ag8
ag10
ag6
ag8
ag10
ag6
ag8
ag10
ag6
ag8
ag6
ag10
ag10
ag8
ag6
ag10
ag6
ag10
ag6
ag6
ag10
ag8
ag10
ag8
ag6
ag8
ag8
ag10
ag6
ag8
ag6
ag6
ag10
ag10
ag8
ag10
ag8
ag8
ag8
ag10
ag8
ag6
ag8
ag6
ag6
ag10
ag10
aa(lp90
g6
ag10
ag6
ag6
ag10
ag6
ag8
ag10
ag6
ag8
ag8
ag8
ag10
ag10
ag6
ag10
ag6
ag8
ag10
ag6
ag6
ag6
ag10
ag10
ag6
ag8
ag10
ag8
ag6
ag10
ag8
ag10
ag10
ag6
ag10
ag6
ag6
ag10
ag6
ag8
ag6
ag8
ag6
ag8
ag6
ag6
ag8
ag10
ag10
ag8
ag6
ag10
ag10
ag10
ag6
ag10
ag10
ag10
ag6
ag8
aa(lp91
g6
ag10
ag6
ag8
ag10
ag10
ag10
ag8
ag6
ag8
ag6
ag6
ag10
ag10
ag6
ag10
ag8
ag8
ag10
ag8
ag10
ag10
ag10
ag10
ag8
ag8
ag8
ag6
ag8
ag6
ag6
ag8
ag8
ag8
ag6
ag8
ag10
ag8
ag6
ag8
ag8
ag10
ag10
ag6
ag10
ag8
ag6
ag6
ag6
ag8
ag10
ag8
ag8
ag8
ag8
ag6
ag10
ag6
ag6
ag10
aa(lp92
g6
ag10
ag10
ag10
ag10
ag6
ag8
ag8
ag10
ag6
ag8
ag8
ag6
ag8
ag6
ag8
ag6
ag10
ag10
ag8
ag6
ag6
ag6
ag6
ag6
ag8
ag10
ag10
ag10
ag10
ag10
ag10
ag6
ag10
ag10
ag6
ag6
ag6
ag8
ag6
ag8
ag6
ag8
ag8
ag8
ag8
ag10
ag6
ag6
ag8
ag10
ag6
ag8
ag10
ag10
ag8
ag6
ag6
ag6
ag6
aa(lp93
g6
ag8
ag8
ag10
ag8
ag6
ag8
ag6
ag6
ag6
ag10
ag8
ag8
ag10
ag6
ag6
ag10
ag8
ag8
ag10
ag10
ag10
ag6
ag8
ag10
ag8
ag6
ag8
ag6
ag6
ag6
ag10
ag6
ag10
ag10
ag6
ag8
ag10
ag10
ag8
ag10
ag8
ag8
ag6
ag10
ag6
ag8
ag6
ag6
ag8
ag8
ag8
ag6
ag8
ag6
ag6
ag10
ag6
ag10
ag8
aa(lp94
g6
ag6
ag6
ag10
ag8
ag6
ag8
ag8
ag6
ag10
ag8
ag8
ag6
ag10
ag6
ag6
ag6
ag6
ag6
ag8
ag10
ag10
ag6
ag8
ag10
ag8
ag6
ag10
ag6
ag8
ag10
ag6
ag8
ag10
ag8
ag10
ag10
ag10
ag10
ag6
ag6
ag8
ag10
ag10
ag10
ag8
ag8
ag6
ag8
ag10
ag6
ag10
ag8
ag6
ag6
ag10
ag10
ag8
ag8
ag8
aa(lp95
g6
ag8
ag8
ag6
ag6
ag6
ag6
ag8
ag10
ag6
ag8
ag6
ag10
ag6
ag8
ag8
ag10
ag6
ag6
ag6
ag10
ag6
ag10
ag10
ag10
ag6
ag10
ag10
ag6
ag10
ag6
ag10
ag8
ag10
ag6
ag8
ag6
ag10
ag6
ag6
ag10
ag10
ag10
ag10
ag8
ag8
ag8
ag10
ag10
ag10
ag10
ag10
ag8
ag10
ag6
ag8
ag8
ag8
ag10
ag8
aa(lp96
g6
ag8
ag8
ag8
ag6
ag6
ag10
ag6
ag6
ag6
ag8
ag6
ag10
ag10
ag6
ag10
ag6
ag8
ag10
ag10
ag6
ag6
ag6
ag6
ag6
ag8
ag8
ag8
ag6
ag10
ag6
ag6
ag10
ag8
ag10
ag6
ag10
ag8
ag10
ag10
ag6
ag6
ag10
ag10
ag6
ag8
ag8
ag6
ag8
ag10
ag8
ag6
ag10
ag10
ag8
ag10
ag6
ag8
ag8
ag10
aa(lp97
g6
ag8
ag10
ag10
ag8
ag8
ag8
ag10
ag8
ag10
ag8
ag6
ag10
ag10
ag8
ag6
ag6
ag8
ag10
ag10
ag10
ag8
ag10
ag10
ag10
ag10
ag8
ag8
ag10
ag10
ag6
ag6
ag6
ag6
ag6
ag8
ag8
ag10
ag10
ag10
ag6
ag6
ag6
ag10
ag8
ag8
ag10
ag8
ag10
ag8
ag10
ag6
ag10
ag8
ag6
ag10
ag10
ag10
ag6
ag10
aa(lp98
g6
ag10
ag6
ag10
ag6
ag8
ag10
ag8
ag6
ag6
ag6
ag10
ag6
ag10
ag8
ag6
ag8
ag10
ag10
ag6
ag8
ag8
ag8
ag10
ag6
ag10
ag6
ag10
ag10
ag10
ag8
ag8
ag10
ag8
ag8
ag10
ag8
ag6
ag8
ag8
ag8
ag6
ag8
ag10
ag10
ag8
ag8
ag10
ag8
ag8
ag6
ag6
ag10
ag8
ag8
ag10
ag10
ag6
ag6
ag10
aa(lp99
g6
ag8
ag6
ag8
ag8
ag8
ag8
ag8
ag10
ag8
ag8
ag8
ag8
ag8
ag8
ag6
ag10
ag6
ag8
ag10
ag8
ag8
ag8
ag8
ag6
ag6
ag8
ag8
ag8
ag10
ag8
ag6
ag10
ag6
ag10
ag6
ag8
ag8
ag6
ag10
ag6
ag8
ag6
ag6
ag10
ag8
ag8
ag8
ag6
ag6
ag10
ag8
ag6
ag10
ag8
ag6
ag6
ag8
ag8
ag6
aa(lp100
g6
ag6
ag6
ag8
ag6
ag8
ag10
ag8
ag8
ag10
ag10
ag6
ag10
ag8
ag6
ag6
ag8
ag10
ag10
ag6
ag6
ag6
ag8
ag6
ag10
ag8
ag8
ag8
ag10
ag8
ag6
ag10
ag8
ag10
ag6
ag6
ag6
ag10
ag6
ag8
ag8
ag8
ag6
ag10
ag10
ag6
ag10
ag8
ag10
ag6
ag6
ag10
ag6
ag6
ag10
ag6
ag10
ag8
ag10
ag10
aa(lp101
g6
ag8
ag6
ag8
ag8
ag10
ag8
ag10
ag8
ag10
ag10
ag6
ag8
ag8
ag6
ag10
ag10
ag6
ag10
ag8
ag6
ag8
ag10
ag10
ag8
ag8
ag6
ag10
ag10
ag10
ag6
ag6
ag10
ag8
ag10
ag6
ag10
ag6
ag10
ag8
ag6
ag6
ag8
ag10
ag10
ag6
ag8
ag8
ag6
ag6
ag6
ag6
ag10
ag6
ag10
ag10
ag8
ag6
ag10
ag8
aa(lp102
g6
ag10
ag10
ag8
ag8
ag8
ag10
ag8
ag6
ag10
ag6
ag6
ag8
ag10
ag6
ag10
ag6
ag8
ag10
ag6
ag8
ag8
ag6
ag8
ag8
ag6
ag10
ag6
ag8
ag10
ag10
ag8
ag10
ag6
ag6
ag6
ag10
ag10
ag10
ag6
ag8
ag6
ag6
ag10
ag8
ag10
ag10
ag10
ag8
ag10
ag6
ag6
ag10
ag6
ag8
ag8
ag6
ag8
ag6
ag10
aa(lp103
g6
ag6
ag10
ag8
ag10
ag6
ag8
ag6
ag10
ag6
ag6
ag6
ag10
ag6
ag8
ag6
ag8
ag6
ag8
ag8
ag8
ag6
ag8
ag8
ag8
ag8
ag10
ag8
ag10
ag8
ag6
ag6
ag6
ag10
ag6
ag6
ag8
ag10
ag10
ag8
ag8
ag10
ag10
ag8
ag6
ag8
ag10
ag10
ag6
ag10
ag10
ag8
ag10
ag6
ag6
ag8
ag6
ag10
ag8
ag6
aa(lp104
g6
ag8
ag6
ag10
ag6
ag8
ag10
ag10
ag6
ag10
ag8
ag8
ag10
ag8
ag10
ag8
ag6
ag10
ag8
ag8
ag6
ag10
ag10
ag8
ag8
ag8
ag8
ag8
ag8
ag10
ag6
ag6
ag10
ag10
ag10
ag6
ag8
ag8
ag8
ag8
ag8
ag8
ag8
ag8
ag10
ag8
ag10
ag10
ag10
ag8
ag8
ag6
ag8
ag6
ag8
ag6
ag6
ag6
ag6
ag10
aa(lp105
g6
ag6
ag6
ag10
ag6
ag8
ag8
ag6
ag8
ag8
ag10
ag10
ag10
ag8
ag8
ag8
ag10
ag10
ag10
ag8
ag10
ag6
ag10
ag8
ag10
ag8
ag6
ag10
ag10
ag8
ag6
ag8
ag6
ag6
ag6
ag8
ag6
ag10
ag8
ag10
ag6
ag8
ag8
ag10
ag10
ag10
ag6
ag8
ag6
ag8
ag8
ag6
ag10
ag8
ag10
ag6
ag10
ag8
ag10
ag8
aa(lp106
g6
ag8
ag10
ag10
ag8
ag10
ag10
ag8
ag10
ag8
ag10
ag10
ag8
ag10
ag6
ag10
ag8
ag10
ag6
ag10
ag10
ag6
ag10
ag6
ag10
ag10
ag10
ag10
ag6
ag10
ag10
ag10
ag10
ag6
ag10
ag6
ag6
ag6
ag10
ag8
ag6
ag8
ag8
ag6
ag8
ag10
ag8
ag10
ag6
ag10
ag6
ag8
ag10
ag10
ag6
ag10
ag6
ag8
ag10
ag6
aa(lp107
g6
ag10
ag8
ag8
ag10
ag6
ag6
ag6
ag10
ag10
ag10
ag10
ag8
ag6
ag8
ag6
ag6
ag8
ag6
ag6
ag8
ag6
ag10
ag6
ag6
ag6
ag10
ag8
ag6
ag8
ag10
ag6
ag10
ag8
ag10
ag8
ag6
ag6
ag8
ag6
ag6
ag10
ag8
ag10
ag8
ag10
ag10
ag6
ag6
ag8
ag6
ag8
ag6
ag10
ag8
ag8
ag8
ag6
ag8
ag8
aa(lp108
g6
ag6
ag6
ag8
ag8
ag6
ag10
ag10
ag8
ag8
ag6
ag8
ag6
ag8
ag10
ag6
ag6
ag10
ag10
ag8
ag6
ag10
ag8
ag8
ag6
ag8
ag8
ag8
ag8
ag8
ag10
ag6
ag8
ag8
ag6
ag10
ag6
ag6
ag6
ag8
ag8
ag8
ag10
ag8
ag6
ag6
ag10
ag6
ag8
ag10
ag6
ag10
ag6
ag6
ag6
ag8
ag8
ag8
ag6
ag10
aa(lp109
g6
ag10
ag10
ag6
ag6
ag6
ag8
ag8
ag6
ag6
ag10
ag10
ag8
ag10
ag10
ag10
ag6
ag10
ag10
ag10
ag8
ag8
ag10
ag8
ag8
ag8
ag10
ag6
ag6
ag8
ag10
ag6
ag10
ag6
ag8
ag10
ag10
ag8
ag6
ag10
ag8
ag8
ag8
ag10
ag8
ag8
ag8
ag8
ag10
ag10
ag8
ag8
ag6
ag8
ag8
ag6
ag8
ag10
ag8
ag10
aa(lp110
g6
ag10
ag6
ag6
ag10
ag6
ag8
ag6
ag8
ag6
ag6
ag8
ag8
ag6
ag10
ag6
ag6
ag6
ag8
ag10
ag8
ag6
ag10
ag10
ag10
ag10
ag10
ag10
ag10
ag6
ag6
ag8
ag8
ag6
ag6
ag10
ag10
ag6
ag10
ag6
ag8
ag8
ag6
ag6
ag6
ag8
ag10
ag10
ag10
ag8
ag8
ag10
ag10
ag10
ag10
ag10
ag10
ag10
ag8
ag8
aa(lp111
g6
ag8
ag10
ag10
ag10
ag10
ag8
ag6
ag10
ag10
ag8
ag10
ag6
ag6
ag6
ag10
ag8
ag6
ag10
ag10
ag6
ag8
ag10
ag8
ag10
ag8
ag10
ag8
ag10
ag8
ag6
ag6
ag10
ag6
ag8
ag8
ag8
ag6
ag8
ag6
ag6
ag10
ag8
ag10
ag10
ag8
ag6
ag6
ag10
ag10
ag6
ag8
ag8
ag8
ag6
ag6
ag10
ag10
ag8
ag10
aasS'numTasks'
p112
I300
sS'tasksPerBlock'
p113
I5
s.